; ModuleID = '51/835.c'
source_filename = "51/835.c"
target datalayout = "e-m:e-p270:32:32-p271:32:32-p272:64:64-i64:64-f80:128-n8:16:32:64-S128"
target triple = "x86_64-pc-linux-gnu"

@.str = private unnamed_addr constant [3 x i8] c"%d\00", align 1
@.str.1 = private unnamed_addr constant [3 x i8] c"NO\00", align 1
@.str.2 = private unnamed_addr constant [4 x i8] c"%d\0A\00", align 1
@.str.3 = private unnamed_addr constant [4 x i8] c"%s\0A\00", align 1

; Function Attrs: noinline nounwind uwtable
define dso_local i32 @main() #0 {
  %1 = alloca i32, align 4
  %2 = alloca [500 x i8], align 16
  %3 = alloca [500 x [6 x i8]], align 16
  %4 = alloca i32, align 4
  %5 = alloca [500 x i32], align 16
  %6 = alloca i32, align 4
  %7 = alloca i32, align 4
  %8 = alloca i32, align 4
  %9 = alloca i32, align 4
  store i32 0, i32* %1, align 4
  %10 = bitcast [500 x i8]* %2 to i8*
  call void @llvm.memset.p0i8.i64(i8* align 16 %10, i8 0, i64 500, i1 false)
  %11 = bitcast [500 x [6 x i8]]* %3 to i8*
  call void @llvm.memset.p0i8.i64(i8* align 16 %11, i8 0, i64 3000, i1 false)
  %12 = bitcast [500 x i32]* %5 to i8*
  call void @llvm.memset.p0i8.i64(i8* align 16 %12, i8 0, i64 2000, i1 false)
  %13 = call i32 (i8*, ...) @__isoc99_scanf(i8* getelementptr inbounds ([3 x i8], [3 x i8]* @.str, i64 0, i64 0), i32* %4)
  %14 = call i32 @getchar()
  %15 = getelementptr inbounds [500 x i8], [500 x i8]* %2, i64 0, i64 0
  %16 = call i32 (i8*, ...) bitcast (i32 (...)* @gets to i32 (i8*, ...)*)(i8* %15)
  %17 = getelementptr inbounds [500 x i8], [500 x i8]* %2, i64 0, i64 0
  %18 = call i64 @strlen(i8* %17) #4
  %19 = trunc i64 %18 to i32
  store i32 %19, i32* %8, align 4
  store i32 0, i32* %6, align 4
  br label %20

20:                                               ; preds = %48, %0
  %21 = load i32, i32* %6, align 4
  %22 = load i32, i32* %8, align 4
  %23 = load i32, i32* %4, align 4
  %24 = sub nsw i32 %22, %23
  %25 = icmp sle i32 %21, %24
  br i1 %25, label %26, label %51

26:                                               ; preds = %20
  store i32 0, i32* %7, align 4
  br label %27

27:                                               ; preds = %44, %26
  %28 = load i32, i32* %7, align 4
  %29 = load i32, i32* %4, align 4
  %30 = icmp slt i32 %28, %29
  br i1 %30, label %31, label %47

31:                                               ; preds = %27
  %32 = load i32, i32* %6, align 4
  %33 = load i32, i32* %7, align 4
  %34 = add nsw i32 %32, %33
  %35 = sext i32 %34 to i64
  %36 = getelementptr inbounds [500 x i8], [500 x i8]* %2, i64 0, i64 %35
  %37 = load i8, i8* %36, align 1
  %38 = load i32, i32* %6, align 4
  %39 = sext i32 %38 to i64
  %40 = getelementptr inbounds [500 x [6 x i8]], [500 x [6 x i8]]* %3, i64 0, i64 %39
  %41 = load i32, i32* %7, align 4
  %42 = sext i32 %41 to i64
  %43 = getelementptr inbounds [6 x i8], [6 x i8]* %40, i64 0, i64 %42
  store i8 %37, i8* %43, align 1
  br label %44

44:                                               ; preds = %31
  %45 = load i32, i32* %7, align 4
  %46 = add nsw i32 %45, 1
  store i32 %46, i32* %7, align 4
  br label %27

47:                                               ; preds = %27
  br label %48

48:                                               ; preds = %47
  %49 = load i32, i32* %6, align 4
  %50 = add nsw i32 %49, 1
  store i32 %50, i32* %6, align 4
  br label %20

51:                                               ; preds = %20
  store i32 0, i32* %6, align 4
  br label %52

52:                                               ; preds = %92, %51
  %53 = load i32, i32* %6, align 4
  %54 = load i32, i32* %8, align 4
  %55 = load i32, i32* %4, align 4
  %56 = sub nsw i32 %54, %55
  %57 = icmp sle i32 %53, %56
  br i1 %57, label %58, label %95

58:                                               ; preds = %52
  %59 = load i32, i32* %6, align 4
  %60 = add nsw i32 %59, 1
  store i32 %60, i32* %7, align 4
  br label %61

61:                                               ; preds = %88, %58
  %62 = load i32, i32* %7, align 4
  %63 = load i32, i32* %8, align 4
  %64 = load i32, i32* %4, align 4
  %65 = sub nsw i32 %63, %64
  %66 = icmp sle i32 %62, %65
  br i1 %66, label %67, label %91

67:                                               ; preds = %61
  %68 = load i32, i32* %6, align 4
  %69 = sext i32 %68 to i64
  %70 = getelementptr inbounds [500 x [6 x i8]], [500 x [6 x i8]]* %3, i64 0, i64 %69
  %71 = getelementptr inbounds [6 x i8], [6 x i8]* %70, i64 0, i64 0
  %72 = load i32, i32* %7, align 4
  %73 = sext i32 %72 to i64
  %74 = getelementptr inbounds [500 x [6 x i8]], [500 x [6 x i8]]* %3, i64 0, i64 %73
  %75 = getelementptr inbounds [6 x i8], [6 x i8]* %74, i64 0, i64 0
  %76 = call i32 @strcmp(i8* %71, i8* %75) #4
  %77 = icmp eq i32 %76, 0
  br i1 %77, label %78, label %87

78:                                               ; preds = %67
  %79 = load i32, i32* %6, align 4
  %80 = sext i32 %79 to i64
  %81 = getelementptr inbounds [500 x i32], [500 x i32]* %5, i64 0, i64 %80
  %82 = load i32, i32* %81, align 4
  %83 = add nsw i32 %82, 1
  %84 = load i32, i32* %6, align 4
  %85 = sext i32 %84 to i64
  %86 = getelementptr inbounds [500 x i32], [500 x i32]* %5, i64 0, i64 %85
  store i32 %83, i32* %86, align 4
  br label %87

87:                                               ; preds = %78, %67
  br label %88

88:                                               ; preds = %87
  %89 = load i32, i32* %7, align 4
  %90 = add nsw i32 %89, 1
  store i32 %90, i32* %7, align 4
  br label %61

91:                                               ; preds = %61
  br label %92

92:                                               ; preds = %91
  %93 = load i32, i32* %6, align 4
  %94 = add nsw i32 %93, 1
  store i32 %94, i32* %6, align 4
  br label %52

95:                                               ; preds = %52
  %96 = getelementptr inbounds [500 x i32], [500 x i32]* %5, i64 0, i64 0
  %97 = load i32, i32* %96, align 16
  store i32 %97, i32* %9, align 4
  store i32 0, i32* %6, align 4
  br label %98

98:                                               ; preds = %117, %95
  %99 = load i32, i32* %6, align 4
  %100 = load i32, i32* %8, align 4
  %101 = load i32, i32* %4, align 4
  %102 = sub nsw i32 %100, %101
  %103 = icmp sle i32 %99, %102
  br i1 %103, label %104, label %120

104:                                              ; preds = %98
  %105 = load i32, i32* %6, align 4
  %106 = sext i32 %105 to i64
  %107 = getelementptr inbounds [500 x i32], [500 x i32]* %5, i64 0, i64 %106
  %108 = load i32, i32* %107, align 4
  %109 = load i32, i32* %9, align 4
  %110 = icmp sgt i32 %108, %109
  br i1 %110, label %111, label %116

111:                                              ; preds = %104
  %112 = load i32, i32* %6, align 4
  %113 = sext i32 %112 to i64
  %114 = getelementptr inbounds [500 x i32], [500 x i32]* %5, i64 0, i64 %113
  %115 = load i32, i32* %114, align 4
  store i32 %115, i32* %9, align 4
  br label %116

116:                                              ; preds = %111, %104
  br label %117

117:                                              ; preds = %116
  %118 = load i32, i32* %6, align 4
  %119 = add nsw i32 %118, 1
  store i32 %119, i32* %6, align 4
  br label %98

120:                                              ; preds = %98
  %121 = load i32, i32* %9, align 4
  %122 = icmp eq i32 %121, 0
  br i1 %122, label %123, label %125

123:                                              ; preds = %120
  %124 = call i32 (i8*, ...) @printf(i8* getelementptr inbounds ([3 x i8], [3 x i8]* @.str.1, i64 0, i64 0))
  br label %153

125:                                              ; preds = %120
  %126 = load i32, i32* %9, align 4
  %127 = add nsw i32 %126, 1
  %128 = call i32 (i8*, ...) @printf(i8* getelementptr inbounds ([4 x i8], [4 x i8]* @.str.2, i64 0, i64 0), i32 %127)
  store i32 0, i32* %6, align 4
  br label %129

129:                                              ; preds = %149, %125
  %130 = load i32, i32* %6, align 4
  %131 = load i32, i32* %8, align 4
  %132 = load i32, i32* %4, align 4
  %133 = sub nsw i32 %131, %132
  %134 = icmp sle i32 %130, %133
  br i1 %134, label %135, label %152

135:                                              ; preds = %129
  %136 = load i32, i32* %6, align 4
  %137 = sext i32 %136 to i64
  %138 = getelementptr inbounds [500 x i32], [500 x i32]* %5, i64 0, i64 %137
  %139 = load i32, i32* %138, align 4
  %140 = load i32, i32* %9, align 4
  %141 = icmp eq i32 %139, %140
  br i1 %141, label %142, label %148

142:                                              ; preds = %135
  %143 = load i32, i32* %6, align 4
  %144 = sext i32 %143 to i64
  %145 = getelementptr inbounds [500 x [6 x i8]], [500 x [6 x i8]]* %3, i64 0, i64 %144
  %146 = getelementptr inbounds [6 x i8], [6 x i8]* %145, i64 0, i64 0
  %147 = call i32 (i8*, ...) @printf(i8* getelementptr inbounds ([4 x i8], [4 x i8]* @.str.3, i64 0, i64 0), i8* %146)
  br label %148

148:                                              ; preds = %142, %135
  br label %149

149:                                              ; preds = %148
  %150 = load i32, i32* %6, align 4
  %151 = add nsw i32 %150, 1
  store i32 %151, i32* %6, align 4
  br label %129

152:                                              ; preds = %129
  br label %153

153:                                              ; preds = %152, %123
  ret i32 0
}

; Function Attrs: argmemonly nounwind willreturn
declare void @llvm.memset.p0i8.i64(i8* nocapture writeonly, i8, i64, i1 immarg) #1

declare dso_local i32 @__isoc99_scanf(i8*, ...) #2

declare dso_local i32 @getchar() #2

declare dso_local i32 @gets(...) #2

; Function Attrs: nounwind readonly
declare dso_local i64 @strlen(i8*) #3

; Function Attrs: nounwind readonly
declare dso_local i32 @strcmp(i8*, i8*) #3

declare dso_local i32 @printf(i8*, ...) #2


!llvm.module.flags = !{!0}
!llvm.ident = !{!1}

!0 = !{i32 1, !"wchar_size", i32 4}
!1 = !{!"clang version 10.0.0-4ubuntu1 "}
